; Function Attrs: mustprogress nounwind uwtable
define void @_Z21tmpi_errors_return_fnPP10tmpi_comm_Pi(ptr noundef readnone %0, ptr nocapture noundef readonly %1) #1 {
  %3 = alloca [256 x i8], align 16
  %4 = load i32, ptr %1, align 4
  %.not.i = icmp eq i32 %4, 2
  br i1 %.not.i, label %10, label %5

5:                                                ; preds = %2
  %spec.store.select.i = tail call i32 @llvm.umin.i32(i32 %4, i32 27)
  %6 = zext nneg i32 %spec.store.select.i to i64
  %7 = getelementptr inbounds [28 x ptr], ptr @_ZL11tmpi_errmsg, i64 0, i64 %6
  %8 = load ptr, ptr %7, align 8
  %9 = call ptr @strncpy(ptr noundef nonnull dereferenceable(1) %3, ptr noundef nonnull dereferenceable(1) %8, i64 noundef 256) #16
  br label %_Z17tMPI_Error_stringiPcPm.exit

10:                                               ; preds = %2
  %11 = tail call ptr @__errno_location() #17
  %12 = load i32, ptr %11, align 4
  %13 = tail call ptr @strerror(i32 noundef %12) #16
  %14 = call i32 (ptr, i64, ptr, ...) @snprintf(ptr noundef nonnull dereferenceable(1) %3, i64 noundef 256, ptr noundef nonnull @.str, ptr noundef nonnull @.str.6, ptr noundef %13) #16
  br label %_Z17tMPI_Error_stringiPcPm.exit

_Z17tMPI_Error_stringiPcPm.exit:                  ; preds = %5, %10
  %.not = icmp eq ptr %0, null
  %15 = load ptr, ptr @stderr, align 8
  %.str.3..str.2 = select i1 %.not, ptr @.str.3, ptr @.str.2
  %16 = call i32 (ptr, ptr, ...) @fprintf(ptr noundef %15, ptr noundef nonnull %.str.3..str.2, ptr noundef nonnull %3) #18
  ret void
}